; Function Attrs: mustprogress nounwind uwtable
define dso_local void @_ZN4llvm14ToolOutputFileC2ENS_9StringRefEi(ptr noundef nonnull align 8 dereferenceable(152) %0, ptr %1, i64 %2, i32 noundef %3) unnamed_addr #0 align 2 {
_ZNSt8optionalIN4llvm14raw_fd_ostreamEE7emplaceIJRibEEENSt9enable_ifIX18is_constructible_vIS1_DpT_EERS1_E4typeEDpOS6_.exit:
  tail call void @_ZN4llvm16CleanupInstallerC1ENS_9StringRefE(ptr noundef nonnull align 8 dereferenceable(33) %0, ptr %1, i64 %2) #5
  %4 = getelementptr inbounds nuw i8, ptr %0, i64 40
  %5 = getelementptr inbounds i8, ptr %0, i64 136
  store i8 0, ptr %5, align 8
  tail call void @_ZN4llvm14raw_fd_ostreamC1EibbNS_11raw_ostream11OStreamKindE(ptr noundef nonnull align 8 dereferenceable(96) %4, i32 noundef %3, i1 noundef zeroext true, i1 noundef zeroext false, i32 noundef 0) #5
  store i8 1, ptr %5, align 8
  %6 = getelementptr inbounds nuw i8, ptr %0, i64 144
  store ptr %4, ptr %6, align 8
  ret void
}